; Function Attrs: nounwind uwtable
define dso_local void @ReleaseBulkInsertStatePin(ptr noundef captures(none) initializes((12, 20)) %0) local_unnamed_addr #2 {
  %2 = getelementptr inbounds nuw i8, ptr %0, i64 8
  %3 = load i32, ptr %2, align 8
  %.not = icmp eq i32 %3, 0
  br i1 %.not, label %5, label %4

4:                                                ; preds = %1
  tail call void @ReleaseBuffer(i32 noundef %3) #13
  br label %5

5:                                                ; preds = %4, %1
  store i32 0, ptr %2, align 8
  %6 = getelementptr inbounds nuw i8, ptr %0, i64 12
  store i32 -1, ptr %6, align 4
  %7 = getelementptr inbounds nuw i8, ptr %0, i64 16
  store i32 -1, ptr %7, align 8
  ret void
}